; ModuleID = '49/517.cpp'
source_filename = "49/517.cpp"
target datalayout = "e-m:e-p270:32:32-p271:32:32-p272:64:64-i64:64-f80:128-n8:16:32:64-S128"
target triple = "x86_64-pc-linux-gnu"

%"class.std::ios_base::Init" = type { i8 }
%"class.std::basic_ostream" = type { i32 (...)**, %"class.std::basic_ios" }
%"class.std::basic_ios" = type { %"class.std::ios_base", %"class.std::basic_ostream"*, i8, i8, %"class.std::basic_streambuf"*, %"class.std::ctype"*, %"class.std::num_put"*, %"class.std::num_get"* }
%"class.std::ios_base" = type { i32 (...)**, i64, i64, i32, i32, i32, %"struct.std::ios_base::_Callback_list"*, %"struct.std::ios_base::_Words", [8 x %"struct.std::ios_base::_Words"], i32, %"struct.std::ios_base::_Words"*, %"class.std::locale" }
%"struct.std::ios_base::_Callback_list" = type { %"struct.std::ios_base::_Callback_list"*, void (i32, %"class.std::ios_base"*, i32)*, i32, i32 }
%"struct.std::ios_base::_Words" = type { i8*, i64 }
%"class.std::locale" = type { %"class.std::locale::_Impl"* }
%"class.std::locale::_Impl" = type { i32, %"class.std::locale::facet"**, i64, %"class.std::locale::facet"**, i8** }
%"class.std::locale::facet" = type <{ i32 (...)**, i32, [4 x i8] }>
%"class.std::basic_streambuf" = type { i32 (...)**, i8*, i8*, i8*, i8*, i8*, i8*, %"class.std::locale" }
%"class.std::ctype" = type <{ %"class.std::locale::facet.base", [4 x i8], %struct.__locale_struct*, i8, [7 x i8], i32*, i32*, i16*, i8, [256 x i8], [256 x i8], i8, [6 x i8] }>
%"class.std::locale::facet.base" = type <{ i32 (...)**, i32 }>
%struct.__locale_struct = type { [13 x %struct.__locale_data*], i16*, i32*, i32*, [13 x i8*] }
%struct.__locale_data = type opaque
%"class.std::num_put" = type { %"class.std::locale::facet.base", [4 x i8] }
%"class.std::num_get" = type { %"class.std::locale::facet.base", [4 x i8] }
%"class.std::basic_istream" = type { i32 (...)**, i64, %"class.std::basic_ios" }

@_ZStL8__ioinit = internal global %"class.std::ios_base::Init" zeroinitializer, align 1
@__dso_handle = external hidden global i8
@a = dso_local global [501 x i8] zeroinitializer, align 16
@len = dso_local global i32 0, align 4
@_ZSt4cout = external dso_local global %"class.std::basic_ostream", align 8
@_ZSt3cin = external dso_local global %"class.std::basic_istream", align 8
@llvm.global_ctors = appending global [1 x { i32, void ()*, i8* }] [{ i32, void ()*, i8* } { i32 65535, void ()* @_GLOBAL__sub_I_517.cpp, i8* null }]

; Function Attrs: noinline uwtable
define internal void @__cxx_global_var_init() #0 section ".text.startup" {
  call void @_ZNSt8ios_base4InitC1Ev(%"class.std::ios_base::Init"* @_ZStL8__ioinit)
  %1 = call i32 @__cxa_atexit(void (i8*)* bitcast (void (%"class.std::ios_base::Init"*)* @_ZNSt8ios_base4InitD1Ev to void (i8*)*), i8* getelementptr inbounds (%"class.std::ios_base::Init", %"class.std::ios_base::Init"* @_ZStL8__ioinit, i32 0, i32 0), i8* @__dso_handle) #3
  ret void
}

declare dso_local void @_ZNSt8ios_base4InitC1Ev(%"class.std::ios_base::Init"*) unnamed_addr #1

; Function Attrs: nounwind
declare dso_local void @_ZNSt8ios_base4InitD1Ev(%"class.std::ios_base::Init"*) unnamed_addr #2

; Function Attrs: nounwind
declare dso_local i32 @__cxa_atexit(void (i8*)*, i8*, i8*) #3

; Function Attrs: noinline uwtable
define dso_local i32 @_Z7lookfori(i32 %0) #0 {
  %2 = alloca i32, align 4
  %3 = alloca i8*, align 8
  %4 = alloca i8*, align 8
  %5 = alloca i32, align 4
  %6 = alloca i32, align 4
  %7 = alloca i32, align 4
  store i32 %0, i32* %2, align 4
  store i8* null, i8** %3, align 8
  store i8* null, i8** %4, align 8
  store i32 1, i32* %6, align 4
  store i32 0, i32* %5, align 4
  br label %8

8:                                                ; preds = %65, %1
  %9 = load i32, i32* %5, align 4
  %10 = load i32, i32* @len, align 4
  %11 = load i32, i32* %2, align 4
  %12 = sub nsw i32 %10, %11
  %13 = icmp sle i32 %9, %12
  br i1 %13, label %14, label %68

14:                                               ; preds = %8
  %15 = load i32, i32* %5, align 4
  %16 = sext i32 %15 to i64
  %17 = getelementptr inbounds [501 x i8], [501 x i8]* @a, i64 0, i64 %16
  store i8* %17, i8** %3, align 8
  store i32 1, i32* %6, align 4
  %18 = load i32, i32* %5, align 4
  %19 = load i32, i32* %2, align 4
  %20 = add nsw i32 %18, %19
  %21 = sub nsw i32 %20, 1
  %22 = sext i32 %21 to i64
  %23 = getelementptr inbounds [501 x i8], [501 x i8]* @a, i64 0, i64 %22
  store i8* %23, i8** %4, align 8
  br label %24

24:                                               ; preds = %37, %14
  %25 = load i8*, i8** %3, align 8
  %26 = load i8*, i8** %4, align 8
  %27 = icmp ult i8* %25, %26
  br i1 %27, label %28, label %42

28:                                               ; preds = %24
  %29 = load i8*, i8** %3, align 8
  %30 = load i8, i8* %29, align 1
  %31 = sext i8 %30 to i32
  %32 = load i8*, i8** %4, align 8
  %33 = load i8, i8* %32, align 1
  %34 = sext i8 %33 to i32
  %35 = icmp ne i32 %31, %34
  br i1 %35, label %36, label %37

36:                                               ; preds = %28
  store i32 0, i32* %6, align 4
  br label %42

37:                                               ; preds = %28
  %38 = load i8*, i8** %3, align 8
  %39 = getelementptr inbounds i8, i8* %38, i32 1
  store i8* %39, i8** %3, align 8
  %40 = load i8*, i8** %4, align 8
  %41 = getelementptr inbounds i8, i8* %40, i32 -1
  store i8* %41, i8** %4, align 8
  br label %24

42:                                               ; preds = %36, %24
  %43 = load i32, i32* %6, align 4
  %44 = icmp eq i32 %43, 1
  br i1 %44, label %45, label %64

45:                                               ; preds = %42
  store i32 0, i32* %7, align 4
  br label %46

46:                                               ; preds = %59, %45
  %47 = load i32, i32* %7, align 4
  %48 = load i32, i32* %2, align 4
  %49 = sub nsw i32 %48, 1
  %50 = icmp sle i32 %47, %49
  br i1 %50, label %51, label %62

51:                                               ; preds = %46
  %52 = load i32, i32* %7, align 4
  %53 = load i32, i32* %5, align 4
  %54 = add nsw i32 %52, %53
  %55 = sext i32 %54 to i64
  %56 = getelementptr inbounds [501 x i8], [501 x i8]* @a, i64 0, i64 %55
  %57 = load i8, i8* %56, align 1
  %58 = call dereferenceable(272) %"class.std::basic_ostream"* @_ZStlsISt11char_traitsIcEERSt13basic_ostreamIcT_ES5_c(%"class.std::basic_ostream"* dereferenceable(272) @_ZSt4cout, i8 signext %57)
  br label %59

59:                                               ; preds = %51
  %60 = load i32, i32* %7, align 4
  %61 = add nsw i32 %60, 1
  store i32 %61, i32* %7, align 4
  br label %46

62:                                               ; preds = %46
  %63 = call dereferenceable(272) %"class.std::basic_ostream"* @_ZNSolsEPFRSoS_E(%"class.std::basic_ostream"* @_ZSt4cout, %"class.std::basic_ostream"* (%"class.std::basic_ostream"*)* @_ZSt4endlIcSt11char_traitsIcEERSt13basic_ostreamIT_T0_ES6_)
  br label %64

64:                                               ; preds = %62, %42
  br label %65

65:                                               ; preds = %64
  %66 = load i32, i32* %5, align 4
  %67 = add nsw i32 %66, 1
  store i32 %67, i32* %5, align 4
  br label %8

68:                                               ; preds = %8
  ret i32 0
}

declare dso_local dereferenceable(272) %"class.std::basic_ostream"* @_ZStlsISt11char_traitsIcEERSt13basic_ostreamIcT_ES5_c(%"class.std::basic_ostream"* dereferenceable(272), i8 signext) #1

declare dso_local dereferenceable(272) %"class.std::basic_ostream"* @_ZNSolsEPFRSoS_E(%"class.std::basic_ostream"*, %"class.std::basic_ostream"* (%"class.std::basic_ostream"*)*) #1

declare dso_local dereferenceable(272) %"class.std::basic_ostream"* @_ZSt4endlIcSt11char_traitsIcEERSt13basic_ostreamIT_T0_ES6_(%"class.std::basic_ostream"* dereferenceable(272)) #1

; Function Attrs: noinline norecurse uwtable
define dso_local i32 @main() #4 {
  %1 = alloca i32, align 4
  %2 = alloca i32, align 4
  store i32 0, i32* %1, align 4
  %3 = call dereferenceable(280) %"class.std::basic_istream"* @_ZStrsIcSt11char_traitsIcEERSt13basic_istreamIT_T0_ES6_PS3_(%"class.std::basic_istream"* dereferenceable(280) @_ZSt3cin, i8* getelementptr inbounds ([501 x i8], [501 x i8]* @a, i64 0, i64 0))
  %4 = call i64 @strlen(i8* getelementptr inbounds ([501 x i8], [501 x i8]* @a, i64 0, i64 0)) #6
  %5 = trunc i64 %4 to i32
  store i32 %5, i32* @len, align 4
  store i32 2, i32* %2, align 4
  br label %6

6:                                                ; preds = %13, %0
  %7 = load i32, i32* %2, align 4
  %8 = load i32, i32* @len, align 4
  %9 = icmp sle i32 %7, %8
  br i1 %9, label %10, label %16

10:                                               ; preds = %6
  %11 = load i32, i32* %2, align 4
  %12 = call i32 @_Z7lookfori(i32 %11)
  br label %13

13:                                               ; preds = %10
  %14 = load i32, i32* %2, align 4
  %15 = add nsw i32 %14, 1
  store i32 %15, i32* %2, align 4
  br label %6

16:                                               ; preds = %6
  ret i32 0
}

declare dso_local dereferenceable(280) %"class.std::basic_istream"* @_ZStrsIcSt11char_traitsIcEERSt13basic_istreamIT_T0_ES6_PS3_(%"class.std::basic_istream"* dereferenceable(280), i8*) #1

; Function Attrs: nounwind readonly
declare dso_local i64 @strlen(i8*) #5

; Function Attrs: noinline uwtable
define internal void @_GLOBAL__sub_I_517.cpp() #0 section ".text.startup" {
  call void @__cxx_global_var_init()
  ret void
}


!llvm.module.flags = !{!0}
!llvm.ident = !{!1}

!0 = !{i32 1, !"wchar_size", i32 4}
!1 = !{!"clang version 10.0.0-4ubuntu1 "}
