; ModuleID = 'source-C-CXX/48/517.cpp'
source_filename = "source-C-CXX/48/517.cpp"
target datalayout = "e-m:e-p270:32:32-p271:32:32-p272:64:64-i64:64-f80:128-n8:16:32:64-S128"
target triple = "x86_64-pc-linux-gnu"

%"class.std::ios_base::Init" = type { i8 }
%"class.std::basic_ostream" = type { i32 (...)**, %"class.std::basic_ios" }
%"class.std::basic_ios" = type { %"class.std::ios_base", %"class.std::basic_ostream"*, i8, i8, %"class.std::basic_streambuf"*, %"class.std::ctype"*, %"class.std::num_put"*, %"class.std::num_get"* }
%"class.std::ios_base" = type { i32 (...)**, i64, i64, i32, i32, i32, %"struct.std::ios_base::_Callback_list"*, %"struct.std::ios_base::_Words", [8 x %"struct.std::ios_base::_Words"], i32, %"struct.std::ios_base::_Words"*, %"class.std::locale" }
%"struct.std::ios_base::_Callback_list" = type { %"struct.std::ios_base::_Callback_list"*, void (i32, %"class.std::ios_base"*, i32)*, i32, i32 }
%"struct.std::ios_base::_Words" = type { i8*, i64 }
%"class.std::locale" = type { %"class.std::locale::_Impl"* }
%"class.std::locale::_Impl" = type { i32, %"class.std::locale::facet"**, i64, %"class.std::locale::facet"**, i8** }
%"class.std::locale::facet" = type <{ i32 (...)**, i32, [4 x i8] }>
%"class.std::basic_streambuf" = type { i32 (...)**, i8*, i8*, i8*, i8*, i8*, i8*, %"class.std::locale" }
%"class.std::ctype" = type <{ %"class.std::locale::facet.base", [4 x i8], %struct.__locale_struct*, i8, [7 x i8], i32*, i32*, i16*, i8, [256 x i8], [256 x i8], i8, [6 x i8] }>
%"class.std::locale::facet.base" = type <{ i32 (...)**, i32 }>
%struct.__locale_struct = type { [13 x %struct.__locale_data*], i16*, i32*, i32*, [13 x i8*] }
%struct.__locale_data = type opaque
%"class.std::num_put" = type { %"class.std::locale::facet.base", [4 x i8] }
%"class.std::num_get" = type { %"class.std::locale::facet.base", [4 x i8] }
%"class.std::basic_istream" = type { i32 (...)**, i64, %"class.std::basic_ios" }

@_ZStL8__ioinit = internal global %"class.std::ios_base::Init" zeroinitializer, align 1
@__dso_handle = external hidden global i8
@a = dso_local global [501 x i8] zeroinitializer, align 16
@len = dso_local local_unnamed_addr global i32 0, align 4
@_ZSt4cout = external global %"class.std::basic_ostream", align 8
@_ZSt3cin = external global %"class.std::basic_istream", align 8
@llvm.global_ctors = appending global [1 x { i32, void ()*, i8* }] [{ i32, void ()*, i8* } { i32 65535, void ()* @_GLOBAL__sub_I_517.cpp, i8* null }]

declare void @_ZNSt8ios_base4InitC1Ev(%"class.std::ios_base::Init"* nonnull align 1 dereferenceable(1)) unnamed_addr #0

; Function Attrs: nounwind
declare void @_ZNSt8ios_base4InitD1Ev(%"class.std::ios_base::Init"* nonnull align 1 dereferenceable(1)) unnamed_addr #1

; Function Attrs: nofree nounwind
declare i32 @__cxa_atexit(void (i8*)*, i8*, i8*) local_unnamed_addr #2

; Function Attrs: mustprogress sspstrong uwtable
define dso_local i32 @_Z7lookfori(i32 %0) local_unnamed_addr #3 {
  %2 = alloca i8, align 1
  %3 = add i32 %0, -1
  %4 = load i32, i32* @len, align 4, !tbaa !5
  %5 = icmp slt i32 %4, %0
  br i1 %5, label %128, label %6

6:                                                ; preds = %1
  %7 = icmp sgt i32 %0, 0
  br i1 %7, label %8, label %73

8:                                                ; preds = %6
  %9 = zext i32 %0 to i64
  br label %10

10:                                               ; preds = %8, %53
  %11 = phi i32 [ %4, %8 ], [ %54, %53 ]
  %12 = phi i64 [ 0, %8 ], [ %55, %53 ]
  %13 = trunc i64 %12 to i32
  %14 = add i32 %3, %13
  %15 = sext i32 %14 to i64
  %16 = icmp slt i64 %12, %15
  br i1 %16, label %18, label %17

17:                                               ; preds = %59, %10
  br label %39

18:                                               ; preds = %10
  %19 = getelementptr inbounds [501 x i8], [501 x i8]* @a, i64 0, i64 %15
  %20 = getelementptr inbounds [501 x i8], [501 x i8]* @a, i64 0, i64 %12
  br label %47

21:                                               ; preds = %63
  %22 = getelementptr inbounds %"class.std::ctype", %"class.std::ctype"* %71, i64 0, i32 8
  %23 = load i8, i8* %22, align 8, !tbaa !9
  %24 = icmp eq i8 %23, 0
  br i1 %24, label %28, label %25

25:                                               ; preds = %21
  %26 = getelementptr inbounds %"class.std::ctype", %"class.std::ctype"* %71, i64 0, i32 9, i64 10
  %27 = load i8, i8* %26, align 1, !tbaa !13
  br label %34

28:                                               ; preds = %21
  call void @_ZNKSt5ctypeIcE13_M_widen_initEv(%"class.std::ctype"* nonnull align 8 dereferenceable(570) %71)
  %29 = bitcast %"class.std::ctype"* %71 to i8 (%"class.std::ctype"*, i8)***
  %30 = load i8 (%"class.std::ctype"*, i8)**, i8 (%"class.std::ctype"*, i8)*** %29, align 8, !tbaa !14
  %31 = getelementptr inbounds i8 (%"class.std::ctype"*, i8)*, i8 (%"class.std::ctype"*, i8)** %30, i64 6
  %32 = load i8 (%"class.std::ctype"*, i8)*, i8 (%"class.std::ctype"*, i8)** %31, align 8
  %33 = call signext i8 %32(%"class.std::ctype"* nonnull align 8 dereferenceable(570) %71, i8 signext 10)
  br label %34

34:                                               ; preds = %28, %25
  %35 = phi i8 [ %27, %25 ], [ %33, %28 ]
  %36 = call nonnull align 8 dereferenceable(8) %"class.std::basic_ostream"* @_ZNSo3putEc(%"class.std::basic_ostream"* nonnull align 8 dereferenceable(8) @_ZSt4cout, i8 signext %35)
  %37 = call nonnull align 8 dereferenceable(8) %"class.std::basic_ostream"* @_ZNSo5flushEv(%"class.std::basic_ostream"* nonnull align 8 dereferenceable(8) %36)
  %38 = load i32, i32* @len, align 4, !tbaa !5
  br label %53

39:                                               ; preds = %17, %39
  %40 = phi i64 [ %45, %39 ], [ 0, %17 ]
  %41 = add nuw nsw i64 %40, %12
  %42 = getelementptr inbounds [501 x i8], [501 x i8]* @a, i64 0, i64 %41
  %43 = load i8, i8* %42, align 1, !tbaa !13
  call void @llvm.lifetime.start.p0i8(i64 1, i8* nonnull %2)
  store i8 %43, i8* %2, align 1, !tbaa !13
  %44 = call nonnull align 8 dereferenceable(8) %"class.std::basic_ostream"* @_ZSt16__ostream_insertIcSt11char_traitsIcEERSt13basic_ostreamIT_T0_ES6_PKS3_l(%"class.std::basic_ostream"* nonnull align 8 dereferenceable(8) @_ZSt4cout, i8* nonnull %2, i64 1)
  call void @llvm.lifetime.end.p0i8(i64 1, i8* nonnull %2)
  %45 = add nuw nsw i64 %40, 1
  %46 = icmp eq i64 %45, %9
  br i1 %46, label %63, label %39, !llvm.loop !16

47:                                               ; preds = %18, %59
  %48 = phi i8* [ %61, %59 ], [ %19, %18 ]
  %49 = phi i8* [ %60, %59 ], [ %20, %18 ]
  %50 = load i8, i8* %49, align 1, !tbaa !13
  %51 = load i8, i8* %48, align 1, !tbaa !13
  %52 = icmp eq i8 %50, %51
  br i1 %52, label %59, label %53

53:                                               ; preds = %47, %34
  %54 = phi i32 [ %38, %34 ], [ %11, %47 ]
  %55 = add nuw nsw i64 %12, 1
  %56 = sub nsw i32 %54, %0
  %57 = sext i32 %56 to i64
  %58 = icmp slt i64 %12, %57
  br i1 %58, label %10, label %128, !llvm.loop !18

59:                                               ; preds = %47
  %60 = getelementptr inbounds i8, i8* %49, i64 1
  %61 = getelementptr inbounds i8, i8* %48, i64 -1
  %62 = icmp ult i8* %60, %61
  br i1 %62, label %47, label %17, !llvm.loop !19

63:                                               ; preds = %39
  %64 = load i8*, i8** bitcast (%"class.std::basic_ostream"* @_ZSt4cout to i8**), align 8, !tbaa !14
  %65 = getelementptr i8, i8* %64, i64 -24
  %66 = bitcast i8* %65 to i64*
  %67 = load i64, i64* %66, align 8
  %68 = add nsw i64 %67, 240
  %69 = getelementptr inbounds i8, i8* bitcast (%"class.std::basic_ostream"* @_ZSt4cout to i8*), i64 %68
  %70 = bitcast i8* %69 to %"class.std::ctype"**
  %71 = load %"class.std::ctype"*, %"class.std::ctype"** %70, align 8, !tbaa !20
  %72 = icmp eq %"class.std::ctype"* %71, null
  br i1 %72, label %103, label %21

73:                                               ; preds = %6, %122
  %74 = phi i32 [ %123, %122 ], [ %4, %6 ]
  %75 = phi i64 [ %124, %122 ], [ 0, %6 ]
  %76 = trunc i64 %75 to i32
  %77 = add i32 %3, %76
  %78 = sext i32 %77 to i64
  %79 = icmp slt i64 %75, %78
  br i1 %79, label %80, label %83

80:                                               ; preds = %73
  %81 = getelementptr inbounds [501 x i8], [501 x i8]* @a, i64 0, i64 %78
  %82 = getelementptr inbounds [501 x i8], [501 x i8]* @a, i64 0, i64 %75
  br label %93

83:                                               ; preds = %99, %73
  %84 = load i8*, i8** bitcast (%"class.std::basic_ostream"* @_ZSt4cout to i8**), align 8, !tbaa !14
  %85 = getelementptr i8, i8* %84, i64 -24
  %86 = bitcast i8* %85 to i64*
  %87 = load i64, i64* %86, align 8
  %88 = add nsw i64 %87, 240
  %89 = getelementptr inbounds i8, i8* bitcast (%"class.std::basic_ostream"* @_ZSt4cout to i8*), i64 %88
  %90 = bitcast i8* %89 to %"class.std::ctype"**
  %91 = load %"class.std::ctype"*, %"class.std::ctype"** %90, align 8, !tbaa !20
  %92 = icmp eq %"class.std::ctype"* %91, null
  br i1 %92, label %103, label %104

93:                                               ; preds = %80, %99
  %94 = phi i8* [ %101, %99 ], [ %81, %80 ]
  %95 = phi i8* [ %100, %99 ], [ %82, %80 ]
  %96 = load i8, i8* %95, align 1, !tbaa !13
  %97 = load i8, i8* %94, align 1, !tbaa !13
  %98 = icmp eq i8 %96, %97
  br i1 %98, label %99, label %122

99:                                               ; preds = %93
  %100 = getelementptr inbounds i8, i8* %95, i64 1
  %101 = getelementptr inbounds i8, i8* %94, i64 -1
  %102 = icmp ult i8* %100, %101
  br i1 %102, label %93, label %83, !llvm.loop !19

103:                                              ; preds = %83, %63
  call void @_ZSt16__throw_bad_castv() #9
  unreachable

104:                                              ; preds = %83
  %105 = getelementptr inbounds %"class.std::ctype", %"class.std::ctype"* %91, i64 0, i32 8
  %106 = load i8, i8* %105, align 8, !tbaa !9
  %107 = icmp eq i8 %106, 0
  br i1 %107, label %111, label %108

108:                                              ; preds = %104
  %109 = getelementptr inbounds %"class.std::ctype", %"class.std::ctype"* %91, i64 0, i32 9, i64 10
  %110 = load i8, i8* %109, align 1, !tbaa !13
  br label %117

111:                                              ; preds = %104
  call void @_ZNKSt5ctypeIcE13_M_widen_initEv(%"class.std::ctype"* nonnull align 8 dereferenceable(570) %91)
  %112 = bitcast %"class.std::ctype"* %91 to i8 (%"class.std::ctype"*, i8)***
  %113 = load i8 (%"class.std::ctype"*, i8)**, i8 (%"class.std::ctype"*, i8)*** %112, align 8, !tbaa !14
  %114 = getelementptr inbounds i8 (%"class.std::ctype"*, i8)*, i8 (%"class.std::ctype"*, i8)** %113, i64 6
  %115 = load i8 (%"class.std::ctype"*, i8)*, i8 (%"class.std::ctype"*, i8)** %114, align 8
  %116 = call signext i8 %115(%"class.std::ctype"* nonnull align 8 dereferenceable(570) %91, i8 signext 10)
  br label %117

117:                                              ; preds = %108, %111
  %118 = phi i8 [ %110, %108 ], [ %116, %111 ]
  %119 = call nonnull align 8 dereferenceable(8) %"class.std::basic_ostream"* @_ZNSo3putEc(%"class.std::basic_ostream"* nonnull align 8 dereferenceable(8) @_ZSt4cout, i8 signext %118)
  %120 = call nonnull align 8 dereferenceable(8) %"class.std::basic_ostream"* @_ZNSo5flushEv(%"class.std::basic_ostream"* nonnull align 8 dereferenceable(8) %119)
  %121 = load i32, i32* @len, align 4, !tbaa !5
  br label %122

122:                                              ; preds = %93, %117
  %123 = phi i32 [ %121, %117 ], [ %74, %93 ]
  %124 = add nuw nsw i64 %75, 1
  %125 = sub nsw i32 %123, %0
  %126 = sext i32 %125 to i64
  %127 = icmp slt i64 %75, %126
  br i1 %127, label %73, label %128, !llvm.loop !18

128:                                              ; preds = %122, %53, %1
  ret i32 0
}

; Function Attrs: mustprogress norecurse sspstrong uwtable
define dso_local i32 @main() local_unnamed_addr #4 {
  tail call void @_ZSt17__istream_extractRSiPcl(%"class.std::basic_istream"* nonnull align 8 dereferenceable(16) @_ZSt3cin, i8* nonnull getelementptr inbounds ([501 x i8], [501 x i8]* @a, i64 0, i64 0), i64 501)
  %1 = tail call i64 @strlen(i8* noundef nonnull dereferenceable(1) getelementptr inbounds ([501 x i8], [501 x i8]* @a, i64 0, i64 0)) #10
  %2 = trunc i64 %1 to i32
  store i32 %2, i32* @len, align 4, !tbaa !5
  %3 = icmp slt i32 %2, 2
  br i1 %3, label %10, label %4

4:                                                ; preds = %0, %4
  %5 = phi i32 [ %7, %4 ], [ 2, %0 ]
  %6 = tail call i32 @_Z7lookfori(i32 %5)
  %7 = add nuw nsw i32 %5, 1
  %8 = load i32, i32* @len, align 4, !tbaa !5
  %9 = icmp slt i32 %5, %8
  br i1 %9, label %4, label %10, !llvm.loop !22

10:                                               ; preds = %4, %0
  ret i32 0
}

; Function Attrs: argmemonly mustprogress nofree nounwind readonly willreturn
declare i64 @strlen(i8* nocapture) local_unnamed_addr #5

declare nonnull align 8 dereferenceable(8) %"class.std::basic_ostream"* @_ZSt16__ostream_insertIcSt11char_traitsIcEERSt13basic_ostreamIT_T0_ES6_PKS3_l(%"class.std::basic_ostream"* nonnull align 8 dereferenceable(8), i8*, i64) local_unnamed_addr #0

declare nonnull align 8 dereferenceable(8) %"class.std::basic_ostream"* @_ZNSo3putEc(%"class.std::basic_ostream"* nonnull align 8 dereferenceable(8), i8 signext) local_unnamed_addr #0

declare nonnull align 8 dereferenceable(8) %"class.std::basic_ostream"* @_ZNSo5flushEv(%"class.std::basic_ostream"* nonnull align 8 dereferenceable(8)) local_unnamed_addr #0

; Function Attrs: noreturn
declare void @_ZSt16__throw_bad_castv() local_unnamed_addr #6

declare void @_ZNKSt5ctypeIcE13_M_widen_initEv(%"class.std::ctype"* nonnull align 8 dereferenceable(570)) local_unnamed_addr #0

declare void @_ZSt17__istream_extractRSiPcl(%"class.std::basic_istream"* nonnull align 8 dereferenceable(16), i8*, i64) local_unnamed_addr #0

; Function Attrs: sspstrong uwtable
define internal void @_GLOBAL__sub_I_517.cpp() #7 section ".text.startup" {
  tail call void @_ZNSt8ios_base4InitC1Ev(%"class.std::ios_base::Init"* nonnull align 1 dereferenceable(1) @_ZStL8__ioinit)
  %1 = tail call i32 @__cxa_atexit(void (i8*)* bitcast (void (%"class.std::ios_base::Init"*)* @_ZNSt8ios_base4InitD1Ev to void (i8*)*), i8* getelementptr inbounds (%"class.std::ios_base::Init", %"class.std::ios_base::Init"* @_ZStL8__ioinit, i64 0, i32 0), i8* nonnull @__dso_handle) #11
  ret void
}

; Function Attrs: argmemonly nofree nosync nounwind willreturn
declare void @llvm.lifetime.start.p0i8(i64 immarg, i8* nocapture) #8

; Function Attrs: argmemonly nofree nosync nounwind willreturn
declare void @llvm.lifetime.end.p0i8(i64 immarg, i8* nocapture) #8


!llvm.module.flags = !{!0, !1, !2, !3}
!llvm.ident = !{!4}

!0 = !{i32 1, !"wchar_size", i32 4}
!1 = !{i32 7, !"PIC Level", i32 2}
!2 = !{i32 7, !"PIE Level", i32 2}
!3 = !{i32 7, !"uwtable", i32 1}
!4 = !{!"clang version 13.0.0"}
!5 = !{!6, !6, i64 0}
!6 = !{!"int", !7, i64 0}
!7 = !{!"omnipotent char", !8, i64 0}
!8 = !{!"Simple C++ TBAA"}
!9 = !{!10, !7, i64 56}
!10 = !{!"_ZTSSt5ctypeIcE", !11, i64 16, !12, i64 24, !11, i64 32, !11, i64 40, !11, i64 48, !7, i64 56, !7, i64 57, !7, i64 313, !7, i64 569}
!11 = !{!"any pointer", !7, i64 0}
!12 = !{!"bool", !7, i64 0}
!13 = !{!7, !7, i64 0}
!14 = !{!15, !15, i64 0}
!15 = !{!"vtable pointer", !8, i64 0}
!16 = distinct !{!16, !17}
!17 = !{!"llvm.loop.mustprogress"}
!18 = distinct !{!18, !17}
!19 = distinct !{!19, !17}
!20 = !{!21, !11, i64 240}
!21 = !{!"_ZTSSt9basic_iosIcSt11char_traitsIcEE", !11, i64 216, !7, i64 224, !12, i64 225, !11, i64 232, !11, i64 240, !11, i64 248, !11, i64 256}
!22 = distinct !{!22, !17}
